
_interrupt:
	MOVWF      R15+0
	SWAPF      STATUS+0, 0
	CLRF       STATUS+0
	MOVWF      ___saveSTATUS+0
	MOVF       PCLATH+0, 0
	MOVWF      ___savePCLATH+0
	CLRF       PCLATH+0

;sys.c,75 :: 		void interrupt() {
;sys.c,76 :: 		Lcd_Init();
	CALL       _Lcd_Init+0
;sys.c,81 :: 		if (INTCON.INTF == 1) {
	BTFSS      INTCON+0, 1
	GOTO       L_interrupt0
;sys.c,82 :: 		INTCON.INTF = 0;
	BCF        INTCON+0, 1
;sys.c,83 :: 		INTCON.T0IE=1;
	BSF        INTCON+0, 5
;sys.c,84 :: 		OPTION_REG.T0CS = 1;
	BSF        OPTION_REG+0, 5
;sys.c,86 :: 		TMR0 = 254;
	MOVLW      254
	MOVWF      TMR0+0
;sys.c,87 :: 		b=1;
	MOVLW      1
	MOVWF      _b+0
	MOVLW      0
	MOVWF      _b+1
;sys.c,91 :: 		}
L_interrupt0:
;sys.c,94 :: 		if (INTCON.T0IF) {
	BTFSS      INTCON+0, 2
	GOTO       L_interrupt1
;sys.c,95 :: 		INTCON.T0IF = 0;
	BCF        INTCON+0, 2
;sys.c,96 :: 		TMR0 = 254;
	MOVLW      254
	MOVWF      TMR0+0
;sys.c,100 :: 		a=1;
	MOVLW      1
	MOVWF      _a+0
	MOVLW      0
	MOVWF      _a+1
;sys.c,103 :: 		}
L_interrupt1:
;sys.c,107 :: 		if (INTCON.RBIF)
	BTFSS      INTCON+0, 0
	GOTO       L_interrupt2
;sys.c,109 :: 		INTCON.RBIF = 0;
	BCF        INTCON+0, 0
;sys.c,111 :: 		if (PORTB.RB4 && (BORN1==1 || BORN2==2 || BORN3==3)){
	BTFSS      PORTB+0, 4
	GOTO       L_interrupt7
	MOVLW      0
	XORWF      _BORN1+1, 0
	BTFSS      STATUS+0, 2
	GOTO       L__interrupt50
	MOVLW      1
	XORWF      _BORN1+0, 0
L__interrupt50:
	BTFSC      STATUS+0, 2
	GOTO       L__interrupt47
	MOVLW      0
	XORWF      _BORN2+1, 0
	BTFSS      STATUS+0, 2
	GOTO       L__interrupt51
	MOVLW      2
	XORWF      _BORN2+0, 0
L__interrupt51:
	BTFSC      STATUS+0, 2
	GOTO       L__interrupt47
	MOVLW      0
	XORWF      _BORN3+1, 0
	BTFSS      STATUS+0, 2
	GOTO       L__interrupt52
	MOVLW      3
	XORWF      _BORN3+0, 0
L__interrupt52:
	BTFSC      STATUS+0, 2
	GOTO       L__interrupt47
	GOTO       L_interrupt7
L__interrupt47:
L__interrupt46:
;sys.c,112 :: 		if (cc == 1)
	MOVLW      0
	XORWF      _cc+1, 0
	BTFSS      STATUS+0, 2
	GOTO       L__interrupt53
	MOVLW      1
	XORWF      _cc+0, 0
L__interrupt53:
	BTFSS      STATUS+0, 2
	GOTO       L_interrupt8
;sys.c,113 :: 		dd=1;
	MOVLW      1
	MOVWF      _dd+0
	MOVLW      0
	MOVWF      _dd+1
L_interrupt8:
;sys.c,114 :: 		}
L_interrupt7:
;sys.c,116 :: 		if (PORTB.RB5 ){
	BTFSS      PORTB+0, 5
	GOTO       L_interrupt9
;sys.c,117 :: 		if (ee==1){
	MOVLW      0
	XORWF      _ee+1, 0
	BTFSS      STATUS+0, 2
	GOTO       L__interrupt54
	MOVLW      1
	XORWF      _ee+0, 0
L__interrupt54:
	BTFSS      STATUS+0, 2
	GOTO       L_interrupt10
;sys.c,118 :: 		ee=0;
	CLRF       _ee+0
	CLRF       _ee+1
;sys.c,119 :: 		ff=1;
	MOVLW      1
	MOVWF      _ff+0
	MOVLW      0
	MOVWF      _ff+1
;sys.c,120 :: 		}
L_interrupt10:
;sys.c,123 :: 		}
L_interrupt9:
;sys.c,125 :: 		if (PORTB.RB3){
	BTFSS      PORTB+0, 3
	GOTO       L_interrupt11
;sys.c,126 :: 		clickst=1;
	MOVLW      1
	MOVWF      _clickst+0
	MOVLW      0
	MOVWF      _clickst+1
;sys.c,127 :: 		}
L_interrupt11:
;sys.c,129 :: 		}
L_interrupt2:
;sys.c,132 :: 		}
L_end_interrupt:
L__interrupt49:
	MOVF       ___savePCLATH+0, 0
	MOVWF      PCLATH+0
	SWAPF      ___saveSTATUS+0, 0
	MOVWF      STATUS+0
	SWAPF      R15+0, 1
	SWAPF      R15+0, 0
	RETFIE
; end of _interrupt

_main:

;sys.c,134 :: 		void main() {
;sys.c,136 :: 		Lcd_Init();
	CALL       _Lcd_Init+0
;sys.c,137 :: 		Lcd_Cmd(_LCD_CLEAR);
	MOVLW      1
	MOVWF      FARG_Lcd_Cmd_out_char+0
	CALL       _Lcd_Cmd+0
;sys.c,138 :: 		Lcd_Cmd(_LCD_CURSOR_OFF);
	MOVLW      12
	MOVWF      FARG_Lcd_Cmd_out_char+0
	CALL       _Lcd_Cmd+0
;sys.c,144 :: 		RESERVE_BUTTON_Direction = 1;
	BSF        TRISB0_bit+0, BitPos(TRISB0_bit+0)
;sys.c,147 :: 		OPTION_REG.T0CS = 1;
	BSF        OPTION_REG+0, 5
;sys.c,149 :: 		TMR0 = 254;
	MOVLW      254
	MOVWF      TMR0+0
;sys.c,151 :: 		INTCON.GIE = 1;
	BSF        INTCON+0, 7
;sys.c,153 :: 		INTCON.RBIE = 1;
	BSF        INTCON+0, 3
;sys.c,154 :: 		OPTION_REG.INTEDG =1;
	BSF        OPTION_REG+0, 6
;sys.c,155 :: 		INTCON.INTE = 1;
	BSF        INTCON+0, 4
;sys.c,158 :: 		TRISB3_bit = 1;  // Configurer RB3 comme entrée
	BSF        TRISB3_bit+0, BitPos(TRISB3_bit+0)
;sys.c,164 :: 		LED_JAUNE_Direction = 0;
	BCF        TRISC0_bit+0, BitPos(TRISC0_bit+0)
;sys.c,165 :: 		LED_BLEUE_Direction = 0;
	BCF        TRISC1_bit+0, BitPos(TRISC1_bit+0)
;sys.c,166 :: 		LED_ROUGE_Direction = 0;
	BCF        TRISC2_bit+0, BitPos(TRISC2_bit+0)
;sys.c,167 :: 		LED_VERTE_Direction = 0;
	BCF        TRISC3_bit+0, BitPos(TRISC3_bit+0)
;sys.c,169 :: 		MOTOR1_Direction = 0;
	BCF        TRISA1_bit+0, BitPos(TRISA1_bit+0)
;sys.c,170 :: 		MOTOR2_Direction = 0;
	BCF        TRISA2_bit+0, BitPos(TRISA2_bit+0)
;sys.c,171 :: 		BUZZER_Direction = 0;
	BCF        TRISA0_bit+0, BitPos(TRISA0_bit+0)
;sys.c,173 :: 		LED_BLEUE = 0;
	BCF        RC1_bit+0, BitPos(RC1_bit+0)
;sys.c,174 :: 		LED_ROUGE = 0;
	BCF        RC2_bit+0, BitPos(RC2_bit+0)
;sys.c,175 :: 		LED_VERTE = 0;
	BCF        RC3_bit+0, BitPos(RC3_bit+0)
;sys.c,176 :: 		LED_JAUNE = 0;
	BCF        RC0_bit+0, BitPos(RC0_bit+0)
;sys.c,177 :: 		MOTOR1 = 0;
	BCF        RA1_bit+0, BitPos(RA1_bit+0)
;sys.c,178 :: 		MOTOR2 = 0;
	BCF        RA2_bit+0, BitPos(RA2_bit+0)
;sys.c,179 :: 		BUZZER = 0;
	BCF        RA0_bit+0, BitPos(RA0_bit+0)
;sys.c,187 :: 		while (1) {
L_main12:
;sys.c,189 :: 		if (TMR0==255 ){
	MOVF       TMR0+0, 0
	XORLW      255
	BTFSS      STATUS+0, 2
	GOTO       L_main14
;sys.c,191 :: 		Lcd_Cmd(_LCD_CLEAR);
	MOVLW      1
	MOVWF      FARG_Lcd_Cmd_out_char+0
	CALL       _Lcd_Cmd+0
;sys.c,192 :: 		Lcd_Out(1, 1, "confirmez");
	MOVLW      1
	MOVWF      FARG_Lcd_Out_row+0
	MOVLW      1
	MOVWF      FARG_Lcd_Out_column+0
	MOVLW      ?lstr1_sys+0
	MOVWF      FARG_Lcd_Out_text+0
	CALL       _Lcd_Out+0
;sys.c,193 :: 		Lcd_Out(2, 1, "re");
	MOVLW      2
	MOVWF      FARG_Lcd_Out_row+0
	MOVLW      1
	MOVWF      FARG_Lcd_Out_column+0
	MOVLW      ?lstr2_sys+0
	MOVWF      FARG_Lcd_Out_text+0
	CALL       _Lcd_Out+0
;sys.c,195 :: 		Delay_ms(100);
	MOVLW      2
	MOVWF      R11+0
	MOVLW      4
	MOVWF      R12+0
	MOVLW      186
	MOVWF      R13+0
L_main15:
	DECFSZ     R13+0, 1
	GOTO       L_main15
	DECFSZ     R12+0, 1
	GOTO       L_main15
	DECFSZ     R11+0, 1
	GOTO       L_main15
	NOP
;sys.c,196 :: 		Lcd_Cmd(_LCD_CLEAR);
	MOVLW      1
	MOVWF      FARG_Lcd_Cmd_out_char+0
	CALL       _Lcd_Cmd+0
;sys.c,199 :: 		}
L_main14:
;sys.c,200 :: 		if (a==1){
	MOVLW      0
	XORWF      _a+1, 0
	BTFSS      STATUS+0, 2
	GOTO       L__main56
	MOVLW      1
	XORWF      _a+0, 0
L__main56:
	BTFSS      STATUS+0, 2
	GOTO       L_main16
;sys.c,202 :: 		Lcd_Cmd(_LCD_CLEAR);
	MOVLW      1
	MOVWF      FARG_Lcd_Cmd_out_char+0
	CALL       _Lcd_Cmd+0
;sys.c,203 :: 		Lcd_Out(1, 1, "Reservation");
	MOVLW      1
	MOVWF      FARG_Lcd_Out_row+0
	MOVLW      1
	MOVWF      FARG_Lcd_Out_column+0
	MOVLW      ?lstr3_sys+0
	MOVWF      FARG_Lcd_Out_text+0
	CALL       _Lcd_Out+0
;sys.c,204 :: 		Lcd_Out(2, 1, "confirmee");
	MOVLW      2
	MOVWF      FARG_Lcd_Out_row+0
	MOVLW      1
	MOVWF      FARG_Lcd_Out_column+0
	MOVLW      ?lstr4_sys+0
	MOVWF      FARG_Lcd_Out_text+0
	CALL       _Lcd_Out+0
;sys.c,206 :: 		Delay_ms(100);
	MOVLW      2
	MOVWF      R11+0
	MOVLW      4
	MOVWF      R12+0
	MOVLW      186
	MOVWF      R13+0
L_main17:
	DECFSZ     R13+0, 1
	GOTO       L_main17
	DECFSZ     R12+0, 1
	GOTO       L_main17
	DECFSZ     R11+0, 1
	GOTO       L_main17
	NOP
;sys.c,207 :: 		Lcd_Cmd(_LCD_CLEAR);
	MOVLW      1
	MOVWF      FARG_Lcd_Cmd_out_char+0
	CALL       _Lcd_Cmd+0
;sys.c,208 :: 		a=0;
	CLRF       _a+0
	CLRF       _a+1
;sys.c,209 :: 		cc=1;
	MOVLW      1
	MOVWF      _cc+0
	MOVLW      0
	MOVWF      _cc+1
;sys.c,211 :: 		}
L_main16:
;sys.c,212 :: 		if (b==1){
	MOVLW      0
	XORWF      _b+1, 0
	BTFSS      STATUS+0, 2
	GOTO       L__main57
	MOVLW      1
	XORWF      _b+0, 0
L__main57:
	BTFSS      STATUS+0, 2
	GOTO       L_main18
;sys.c,214 :: 		b=0;
	CLRF       _b+0
	CLRF       _b+1
;sys.c,215 :: 		if (reserve> 3)
	MOVLW      128
	MOVWF      R0+0
	MOVLW      128
	XORWF      _reserve+1, 0
	SUBWF      R0+0, 0
	BTFSS      STATUS+0, 2
	GOTO       L__main58
	MOVF       _reserve+0, 0
	SUBLW      3
L__main58:
	BTFSC      STATUS+0, 0
	GOTO       L_main19
;sys.c,217 :: 		reserve--;
	MOVLW      1
	SUBWF      _reserve+0, 1
	BTFSS      STATUS+0, 0
	DECF       _reserve+1, 1
;sys.c,218 :: 		Lcd_Cmd(_LCD_CLEAR);
	MOVLW      1
	MOVWF      FARG_Lcd_Cmd_out_char+0
	CALL       _Lcd_Cmd+0
;sys.c,219 :: 		Lcd_Out(1, 1, "NON Disponible ");
	MOVLW      1
	MOVWF      FARG_Lcd_Out_row+0
	MOVLW      1
	MOVWF      FARG_Lcd_Out_column+0
	MOVLW      ?lstr5_sys+0
	MOVWF      FARG_Lcd_Out_text+0
	CALL       _Lcd_Out+0
;sys.c,220 :: 		Delay_ms(100);
	MOVLW      2
	MOVWF      R11+0
	MOVLW      4
	MOVWF      R12+0
	MOVLW      186
	MOVWF      R13+0
L_main20:
	DECFSZ     R13+0, 1
	GOTO       L_main20
	DECFSZ     R12+0, 1
	GOTO       L_main20
	DECFSZ     R11+0, 1
	GOTO       L_main20
	NOP
;sys.c,221 :: 		Lcd_Cmd(_LCD_CLEAR);
	MOVLW      1
	MOVWF      FARG_Lcd_Cmd_out_char+0
	CALL       _Lcd_Cmd+0
;sys.c,223 :: 		}
L_main19:
;sys.c,224 :: 		if (reserve <=3)
	MOVLW      128
	MOVWF      R0+0
	MOVLW      128
	XORWF      _reserve+1, 0
	SUBWF      R0+0, 0
	BTFSS      STATUS+0, 2
	GOTO       L__main59
	MOVF       _reserve+0, 0
	SUBLW      3
L__main59:
	BTFSS      STATUS+0, 0
	GOTO       L_main21
;sys.c,227 :: 		reserve++;
	INCF       _reserve+0, 1
	BTFSC      STATUS+0, 2
	INCF       _reserve+1, 1
;sys.c,229 :: 		INTCON.RBIE=1;
	BSF        INTCON+0, 3
;sys.c,230 :: 		if (reserve == 1){
	MOVLW      0
	XORWF      _reserve+1, 0
	BTFSS      STATUS+0, 2
	GOTO       L__main60
	MOVLW      1
	XORWF      _reserve+0, 0
L__main60:
	BTFSS      STATUS+0, 2
	GOTO       L_main22
;sys.c,231 :: 		BORN1=1;
	MOVLW      1
	MOVWF      _BORN1+0
	MOVLW      0
	MOVWF      _BORN1+1
;sys.c,232 :: 		IntToStr(BORN1, txt);
	MOVLW      1
	MOVWF      FARG_IntToStr_input+0
	MOVLW      0
	MOVWF      FARG_IntToStr_input+1
	MOVLW      _txt+0
	MOVWF      FARG_IntToStr_output+0
	CALL       _IntToStr+0
;sys.c,233 :: 		Lcd_Cmd(_LCD_CLEAR);
	MOVLW      1
	MOVWF      FARG_Lcd_Cmd_out_char+0
	CALL       _Lcd_Cmd+0
;sys.c,234 :: 		Lcd_Out(1, 1, "Borne");
	MOVLW      1
	MOVWF      FARG_Lcd_Out_row+0
	MOVLW      1
	MOVWF      FARG_Lcd_Out_column+0
	MOVLW      ?lstr6_sys+0
	MOVWF      FARG_Lcd_Out_text+0
	CALL       _Lcd_Out+0
;sys.c,235 :: 		Lcd_Out(2, 1, txt);
	MOVLW      2
	MOVWF      FARG_Lcd_Out_row+0
	MOVLW      1
	MOVWF      FARG_Lcd_Out_column+0
	MOVLW      _txt+0
	MOVWF      FARG_Lcd_Out_text+0
	CALL       _Lcd_Out+0
;sys.c,236 :: 		Lcd_Out(2, 8, "dispo");
	MOVLW      2
	MOVWF      FARG_Lcd_Out_row+0
	MOVLW      8
	MOVWF      FARG_Lcd_Out_column+0
	MOVLW      ?lstr7_sys+0
	MOVWF      FARG_Lcd_Out_text+0
	CALL       _Lcd_Out+0
;sys.c,237 :: 		Delay_ms(100);
	MOVLW      2
	MOVWF      R11+0
	MOVLW      4
	MOVWF      R12+0
	MOVLW      186
	MOVWF      R13+0
L_main23:
	DECFSZ     R13+0, 1
	GOTO       L_main23
	DECFSZ     R12+0, 1
	GOTO       L_main23
	DECFSZ     R11+0, 1
	GOTO       L_main23
	NOP
;sys.c,238 :: 		Lcd_Cmd(_LCD_CLEAR);
	MOVLW      1
	MOVWF      FARG_Lcd_Cmd_out_char+0
	CALL       _Lcd_Cmd+0
;sys.c,239 :: 		}
L_main22:
;sys.c,240 :: 		if (reserve == 2){
	MOVLW      0
	XORWF      _reserve+1, 0
	BTFSS      STATUS+0, 2
	GOTO       L__main61
	MOVLW      2
	XORWF      _reserve+0, 0
L__main61:
	BTFSS      STATUS+0, 2
	GOTO       L_main24
;sys.c,241 :: 		BORN2=2;
	MOVLW      2
	MOVWF      _BORN2+0
	MOVLW      0
	MOVWF      _BORN2+1
;sys.c,242 :: 		IntToStr(BORN2, txt);
	MOVLW      2
	MOVWF      FARG_IntToStr_input+0
	MOVLW      0
	MOVWF      FARG_IntToStr_input+1
	MOVLW      _txt+0
	MOVWF      FARG_IntToStr_output+0
	CALL       _IntToStr+0
;sys.c,243 :: 		Lcd_Cmd(_LCD_CLEAR);
	MOVLW      1
	MOVWF      FARG_Lcd_Cmd_out_char+0
	CALL       _Lcd_Cmd+0
;sys.c,244 :: 		Lcd_Out(1, 1, "Borne");
	MOVLW      1
	MOVWF      FARG_Lcd_Out_row+0
	MOVLW      1
	MOVWF      FARG_Lcd_Out_column+0
	MOVLW      ?lstr8_sys+0
	MOVWF      FARG_Lcd_Out_text+0
	CALL       _Lcd_Out+0
;sys.c,245 :: 		Lcd_Out(2, 1, txt);
	MOVLW      2
	MOVWF      FARG_Lcd_Out_row+0
	MOVLW      1
	MOVWF      FARG_Lcd_Out_column+0
	MOVLW      _txt+0
	MOVWF      FARG_Lcd_Out_text+0
	CALL       _Lcd_Out+0
;sys.c,246 :: 		Lcd_Out(2, 8, "dispo");
	MOVLW      2
	MOVWF      FARG_Lcd_Out_row+0
	MOVLW      8
	MOVWF      FARG_Lcd_Out_column+0
	MOVLW      ?lstr9_sys+0
	MOVWF      FARG_Lcd_Out_text+0
	CALL       _Lcd_Out+0
;sys.c,247 :: 		Delay_ms(100);
	MOVLW      2
	MOVWF      R11+0
	MOVLW      4
	MOVWF      R12+0
	MOVLW      186
	MOVWF      R13+0
L_main25:
	DECFSZ     R13+0, 1
	GOTO       L_main25
	DECFSZ     R12+0, 1
	GOTO       L_main25
	DECFSZ     R11+0, 1
	GOTO       L_main25
	NOP
;sys.c,248 :: 		Lcd_Cmd(_LCD_CLEAR);
	MOVLW      1
	MOVWF      FARG_Lcd_Cmd_out_char+0
	CALL       _Lcd_Cmd+0
;sys.c,249 :: 		}
L_main24:
;sys.c,251 :: 		if (reserve == 3){
	MOVLW      0
	XORWF      _reserve+1, 0
	BTFSS      STATUS+0, 2
	GOTO       L__main62
	MOVLW      3
	XORWF      _reserve+0, 0
L__main62:
	BTFSS      STATUS+0, 2
	GOTO       L_main26
;sys.c,252 :: 		BORN3=3;
	MOVLW      3
	MOVWF      _BORN3+0
	MOVLW      0
	MOVWF      _BORN3+1
;sys.c,253 :: 		IntToStr(BORN3, txt);
	MOVLW      3
	MOVWF      FARG_IntToStr_input+0
	MOVLW      0
	MOVWF      FARG_IntToStr_input+1
	MOVLW      _txt+0
	MOVWF      FARG_IntToStr_output+0
	CALL       _IntToStr+0
;sys.c,254 :: 		Lcd_Cmd(_LCD_CLEAR);
	MOVLW      1
	MOVWF      FARG_Lcd_Cmd_out_char+0
	CALL       _Lcd_Cmd+0
;sys.c,255 :: 		Lcd_Out(1, 1, "Borne");
	MOVLW      1
	MOVWF      FARG_Lcd_Out_row+0
	MOVLW      1
	MOVWF      FARG_Lcd_Out_column+0
	MOVLW      ?lstr10_sys+0
	MOVWF      FARG_Lcd_Out_text+0
	CALL       _Lcd_Out+0
;sys.c,256 :: 		Lcd_Out(2, 1, txt);
	MOVLW      2
	MOVWF      FARG_Lcd_Out_row+0
	MOVLW      1
	MOVWF      FARG_Lcd_Out_column+0
	MOVLW      _txt+0
	MOVWF      FARG_Lcd_Out_text+0
	CALL       _Lcd_Out+0
;sys.c,257 :: 		Lcd_Out(2, 8, "dispo");
	MOVLW      2
	MOVWF      FARG_Lcd_Out_row+0
	MOVLW      8
	MOVWF      FARG_Lcd_Out_column+0
	MOVLW      ?lstr11_sys+0
	MOVWF      FARG_Lcd_Out_text+0
	CALL       _Lcd_Out+0
;sys.c,258 :: 		Delay_ms(100);
	MOVLW      2
	MOVWF      R11+0
	MOVLW      4
	MOVWF      R12+0
	MOVLW      186
	MOVWF      R13+0
L_main27:
	DECFSZ     R13+0, 1
	GOTO       L_main27
	DECFSZ     R12+0, 1
	GOTO       L_main27
	DECFSZ     R11+0, 1
	GOTO       L_main27
	NOP
;sys.c,259 :: 		Lcd_Cmd(_LCD_CLEAR);
	MOVLW      1
	MOVWF      FARG_Lcd_Cmd_out_char+0
	CALL       _Lcd_Cmd+0
;sys.c,260 :: 		}
L_main26:
;sys.c,262 :: 		}
L_main21:
;sys.c,265 :: 		}
L_main18:
;sys.c,267 :: 		if (dd==1){
	MOVLW      0
	XORWF      _dd+1, 0
	BTFSS      STATUS+0, 2
	GOTO       L__main63
	MOVLW      1
	XORWF      _dd+0, 0
L__main63:
	BTFSS      STATUS+0, 2
	GOTO       L_main28
;sys.c,268 :: 		dd=0;
	CLRF       _dd+0
	CLRF       _dd+1
;sys.c,269 :: 		cc=0;
	CLRF       _cc+0
	CLRF       _cc+1
;sys.c,270 :: 		ee=1;
	MOVLW      1
	MOVWF      _ee+0
	MOVLW      0
	MOVWF      _ee+1
;sys.c,271 :: 		MOTOR1=1 ;
	BSF        RA1_bit+0, BitPos(RA1_bit+0)
;sys.c,272 :: 		Lcd_Cmd(_LCD_CLEAR);
	MOVLW      1
	MOVWF      FARG_Lcd_Cmd_out_char+0
	CALL       _Lcd_Cmd+0
;sys.c,273 :: 		Lcd_Out(1, 1, "ENTREZ ");
	MOVLW      1
	MOVWF      FARG_Lcd_Out_row+0
	MOVLW      1
	MOVWF      FARG_Lcd_Out_column+0
	MOVLW      ?lstr12_sys+0
	MOVWF      FARG_Lcd_Out_text+0
	CALL       _Lcd_Out+0
;sys.c,275 :: 		for (ii=0;ii<3;ii++){
	CLRF       _ii+0
	CLRF       _ii+1
L_main29:
	MOVLW      128
	XORWF      _ii+1, 0
	MOVWF      R0+0
	MOVLW      128
	SUBWF      R0+0, 0
	BTFSS      STATUS+0, 2
	GOTO       L__main64
	MOVLW      3
	SUBWF      _ii+0, 0
L__main64:
	BTFSC      STATUS+0, 0
	GOTO       L_main30
;sys.c,276 :: 		LED_VERTE = 1;
	BSF        RC3_bit+0, BitPos(RC3_bit+0)
;sys.c,277 :: 		Delay_ms(50);
	MOVLW      130
	MOVWF      R12+0
	MOVLW      221
	MOVWF      R13+0
L_main32:
	DECFSZ     R13+0, 1
	GOTO       L_main32
	DECFSZ     R12+0, 1
	GOTO       L_main32
	NOP
	NOP
;sys.c,278 :: 		LED_VERTE = 0;
	BCF        RC3_bit+0, BitPos(RC3_bit+0)
;sys.c,279 :: 		Delay_ms(50);
	MOVLW      130
	MOVWF      R12+0
	MOVLW      221
	MOVWF      R13+0
L_main33:
	DECFSZ     R13+0, 1
	GOTO       L_main33
	DECFSZ     R12+0, 1
	GOTO       L_main33
	NOP
	NOP
;sys.c,275 :: 		for (ii=0;ii<3;ii++){
	INCF       _ii+0, 1
	BTFSC      STATUS+0, 2
	INCF       _ii+1, 1
;sys.c,280 :: 		}
	GOTO       L_main29
L_main30:
;sys.c,281 :: 		MOTOR1=0;
	BCF        RA1_bit+0, BitPos(RA1_bit+0)
;sys.c,284 :: 		Lcd_Cmd(_LCD_CLEAR);
	MOVLW      1
	MOVWF      FARG_Lcd_Cmd_out_char+0
	CALL       _Lcd_Cmd+0
;sys.c,285 :: 		}
L_main28:
;sys.c,287 :: 		if (ff == 1){
	MOVLW      0
	XORWF      _ff+1, 0
	BTFSS      STATUS+0, 2
	GOTO       L__main65
	MOVLW      1
	XORWF      _ff+0, 0
L__main65:
	BTFSS      STATUS+0, 2
	GOTO       L_main34
;sys.c,288 :: 		ff=0;
	CLRF       _ff+0
	CLRF       _ff+1
;sys.c,289 :: 		sortie=1;
	MOVLW      1
	MOVWF      _sortie+0
	MOVLW      0
	MOVWF      _sortie+1
;sys.c,290 :: 		stock++;
	INCF       _stock+0, 1
	BTFSC      STATUS+0, 2
	INCF       _stock+1, 1
;sys.c,291 :: 		reserve--;
	MOVLW      1
	SUBWF      _reserve+0, 1
	BTFSS      STATUS+0, 0
	DECF       _reserve+1, 1
;sys.c,292 :: 		if (BORN1 == 1) {
	MOVLW      0
	XORWF      _BORN1+1, 0
	BTFSS      STATUS+0, 2
	GOTO       L__main66
	MOVLW      1
	XORWF      _BORN1+0, 0
L__main66:
	BTFSS      STATUS+0, 2
	GOTO       L_main35
;sys.c,294 :: 		IntToStr(BORN1, txt);
	MOVF       _BORN1+0, 0
	MOVWF      FARG_IntToStr_input+0
	MOVF       _BORN1+1, 0
	MOVWF      FARG_IntToStr_input+1
	MOVLW      _txt+0
	MOVWF      FARG_IntToStr_output+0
	CALL       _IntToStr+0
;sys.c,295 :: 		Lcd_Cmd(_LCD_CLEAR);
	MOVLW      1
	MOVWF      FARG_Lcd_Cmd_out_char+0
	CALL       _Lcd_Cmd+0
;sys.c,296 :: 		Lcd_Out(1, 1, "bye ");
	MOVLW      1
	MOVWF      FARG_Lcd_Out_row+0
	MOVLW      1
	MOVWF      FARG_Lcd_Out_column+0
	MOVLW      ?lstr13_sys+0
	MOVWF      FARG_Lcd_Out_text+0
	CALL       _Lcd_Out+0
;sys.c,297 :: 		Lcd_Out(2, 1, "Borne :");
	MOVLW      2
	MOVWF      FARG_Lcd_Out_row+0
	MOVLW      1
	MOVWF      FARG_Lcd_Out_column+0
	MOVLW      ?lstr14_sys+0
	MOVWF      FARG_Lcd_Out_text+0
	CALL       _Lcd_Out+0
;sys.c,298 :: 		Lcd_Out(2, 7, txt);
	MOVLW      2
	MOVWF      FARG_Lcd_Out_row+0
	MOVLW      7
	MOVWF      FARG_Lcd_Out_column+0
	MOVLW      _txt+0
	MOVWF      FARG_Lcd_Out_text+0
	CALL       _Lcd_Out+0
;sys.c,299 :: 		MOTOR2=1;
	BSF        RA2_bit+0, BitPos(RA2_bit+0)
;sys.c,300 :: 		LED_VERTE = 1;
	BSF        RC3_bit+0, BitPos(RC3_bit+0)
;sys.c,301 :: 		Delay_ms(300);
	MOVLW      4
	MOVWF      R11+0
	MOVLW      12
	MOVWF      R12+0
	MOVLW      51
	MOVWF      R13+0
L_main36:
	DECFSZ     R13+0, 1
	GOTO       L_main36
	DECFSZ     R12+0, 1
	GOTO       L_main36
	DECFSZ     R11+0, 1
	GOTO       L_main36
	NOP
	NOP
;sys.c,302 :: 		LED_VERTE = 0;
	BCF        RC3_bit+0, BitPos(RC3_bit+0)
;sys.c,303 :: 		MOTOR2=0;
	BCF        RA2_bit+0, BitPos(RA2_bit+0)
;sys.c,304 :: 		Delay_ms(50);
	MOVLW      130
	MOVWF      R12+0
	MOVLW      221
	MOVWF      R13+0
L_main37:
	DECFSZ     R13+0, 1
	GOTO       L_main37
	DECFSZ     R12+0, 1
	GOTO       L_main37
	NOP
	NOP
;sys.c,305 :: 		Lcd_Cmd(_LCD_CLEAR);
	MOVLW      1
	MOVWF      FARG_Lcd_Cmd_out_char+0
	CALL       _Lcd_Cmd+0
;sys.c,306 :: 		BORN1 =0;
	CLRF       _BORN1+0
	CLRF       _BORN1+1
;sys.c,307 :: 		}
L_main35:
;sys.c,309 :: 		if (BORN2 == 2) {
	MOVLW      0
	XORWF      _BORN2+1, 0
	BTFSS      STATUS+0, 2
	GOTO       L__main67
	MOVLW      2
	XORWF      _BORN2+0, 0
L__main67:
	BTFSS      STATUS+0, 2
	GOTO       L_main38
;sys.c,311 :: 		IntToStr(BORN2, txt);
	MOVF       _BORN2+0, 0
	MOVWF      FARG_IntToStr_input+0
	MOVF       _BORN2+1, 0
	MOVWF      FARG_IntToStr_input+1
	MOVLW      _txt+0
	MOVWF      FARG_IntToStr_output+0
	CALL       _IntToStr+0
;sys.c,312 :: 		Lcd_Cmd(_LCD_CLEAR);
	MOVLW      1
	MOVWF      FARG_Lcd_Cmd_out_char+0
	CALL       _Lcd_Cmd+0
;sys.c,313 :: 		Lcd_Out(1, 1, "bye ");
	MOVLW      1
	MOVWF      FARG_Lcd_Out_row+0
	MOVLW      1
	MOVWF      FARG_Lcd_Out_column+0
	MOVLW      ?lstr15_sys+0
	MOVWF      FARG_Lcd_Out_text+0
	CALL       _Lcd_Out+0
;sys.c,314 :: 		Lcd_Out(2, 1, "Borne :");
	MOVLW      2
	MOVWF      FARG_Lcd_Out_row+0
	MOVLW      1
	MOVWF      FARG_Lcd_Out_column+0
	MOVLW      ?lstr16_sys+0
	MOVWF      FARG_Lcd_Out_text+0
	CALL       _Lcd_Out+0
;sys.c,315 :: 		Lcd_Out(2, 7, txt);
	MOVLW      2
	MOVWF      FARG_Lcd_Out_row+0
	MOVLW      7
	MOVWF      FARG_Lcd_Out_column+0
	MOVLW      _txt+0
	MOVWF      FARG_Lcd_Out_text+0
	CALL       _Lcd_Out+0
;sys.c,316 :: 		MOTOR2=1;
	BSF        RA2_bit+0, BitPos(RA2_bit+0)
;sys.c,317 :: 		LED_VERTE = 1;
	BSF        RC3_bit+0, BitPos(RC3_bit+0)
;sys.c,318 :: 		Delay_ms(300);
	MOVLW      4
	MOVWF      R11+0
	MOVLW      12
	MOVWF      R12+0
	MOVLW      51
	MOVWF      R13+0
L_main39:
	DECFSZ     R13+0, 1
	GOTO       L_main39
	DECFSZ     R12+0, 1
	GOTO       L_main39
	DECFSZ     R11+0, 1
	GOTO       L_main39
	NOP
	NOP
;sys.c,319 :: 		LED_VERTE = 0;
	BCF        RC3_bit+0, BitPos(RC3_bit+0)
;sys.c,320 :: 		MOTOR2=0;
	BCF        RA2_bit+0, BitPos(RA2_bit+0)
;sys.c,321 :: 		Delay_ms(50);
	MOVLW      130
	MOVWF      R12+0
	MOVLW      221
	MOVWF      R13+0
L_main40:
	DECFSZ     R13+0, 1
	GOTO       L_main40
	DECFSZ     R12+0, 1
	GOTO       L_main40
	NOP
	NOP
;sys.c,322 :: 		Lcd_Cmd(_LCD_CLEAR);
	MOVLW      1
	MOVWF      FARG_Lcd_Cmd_out_char+0
	CALL       _Lcd_Cmd+0
;sys.c,323 :: 		BORN2 =0;
	CLRF       _BORN2+0
	CLRF       _BORN2+1
;sys.c,324 :: 		}
L_main38:
;sys.c,326 :: 		if (BORN3 == 3) {
	MOVLW      0
	XORWF      _BORN3+1, 0
	BTFSS      STATUS+0, 2
	GOTO       L__main68
	MOVLW      3
	XORWF      _BORN3+0, 0
L__main68:
	BTFSS      STATUS+0, 2
	GOTO       L_main41
;sys.c,328 :: 		IntToStr(BORN3, txt);
	MOVF       _BORN3+0, 0
	MOVWF      FARG_IntToStr_input+0
	MOVF       _BORN3+1, 0
	MOVWF      FARG_IntToStr_input+1
	MOVLW      _txt+0
	MOVWF      FARG_IntToStr_output+0
	CALL       _IntToStr+0
;sys.c,329 :: 		Lcd_Cmd(_LCD_CLEAR);
	MOVLW      1
	MOVWF      FARG_Lcd_Cmd_out_char+0
	CALL       _Lcd_Cmd+0
;sys.c,330 :: 		Lcd_Out(1, 1, "bye ");
	MOVLW      1
	MOVWF      FARG_Lcd_Out_row+0
	MOVLW      1
	MOVWF      FARG_Lcd_Out_column+0
	MOVLW      ?lstr17_sys+0
	MOVWF      FARG_Lcd_Out_text+0
	CALL       _Lcd_Out+0
;sys.c,331 :: 		Lcd_Out(2, 1, "Borne :");
	MOVLW      2
	MOVWF      FARG_Lcd_Out_row+0
	MOVLW      1
	MOVWF      FARG_Lcd_Out_column+0
	MOVLW      ?lstr18_sys+0
	MOVWF      FARG_Lcd_Out_text+0
	CALL       _Lcd_Out+0
;sys.c,332 :: 		Lcd_Out(2, 7, txt);
	MOVLW      2
	MOVWF      FARG_Lcd_Out_row+0
	MOVLW      7
	MOVWF      FARG_Lcd_Out_column+0
	MOVLW      _txt+0
	MOVWF      FARG_Lcd_Out_text+0
	CALL       _Lcd_Out+0
;sys.c,333 :: 		MOTOR2=1;
	BSF        RA2_bit+0, BitPos(RA2_bit+0)
;sys.c,334 :: 		LED_VERTE = 1;
	BSF        RC3_bit+0, BitPos(RC3_bit+0)
;sys.c,335 :: 		Delay_ms(300);
	MOVLW      4
	MOVWF      R11+0
	MOVLW      12
	MOVWF      R12+0
	MOVLW      51
	MOVWF      R13+0
L_main42:
	DECFSZ     R13+0, 1
	GOTO       L_main42
	DECFSZ     R12+0, 1
	GOTO       L_main42
	DECFSZ     R11+0, 1
	GOTO       L_main42
	NOP
	NOP
;sys.c,336 :: 		LED_VERTE = 0;
	BCF        RC3_bit+0, BitPos(RC3_bit+0)
;sys.c,337 :: 		MOTOR2=0;
	BCF        RA2_bit+0, BitPos(RA2_bit+0)
;sys.c,338 :: 		Delay_ms(50);
	MOVLW      130
	MOVWF      R12+0
	MOVLW      221
	MOVWF      R13+0
L_main43:
	DECFSZ     R13+0, 1
	GOTO       L_main43
	DECFSZ     R12+0, 1
	GOTO       L_main43
	NOP
	NOP
;sys.c,339 :: 		Lcd_Cmd(_LCD_CLEAR);
	MOVLW      1
	MOVWF      FARG_Lcd_Cmd_out_char+0
	CALL       _Lcd_Cmd+0
;sys.c,340 :: 		BORN3 =0;
	CLRF       _BORN3+0
	CLRF       _BORN3+1
;sys.c,341 :: 		}
L_main41:
;sys.c,343 :: 		}
L_main34:
;sys.c,345 :: 		if (clickst == 1){
	MOVLW      0
	XORWF      _clickst+1, 0
	BTFSS      STATUS+0, 2
	GOTO       L__main69
	MOVLW      1
	XORWF      _clickst+0, 0
L__main69:
	BTFSS      STATUS+0, 2
	GOTO       L_main44
;sys.c,346 :: 		clickst =0;
	CLRF       _clickst+0
	CLRF       _clickst+1
;sys.c,347 :: 		Lcd_Cmd(_LCD_CLEAR);
	MOVLW      1
	MOVWF      FARG_Lcd_Cmd_out_char+0
	CALL       _Lcd_Cmd+0
;sys.c,348 :: 		EEPROM_Write(0x50,stock);
	MOVLW      80
	MOVWF      FARG_EEPROM_Write_Address+0
	MOVF       _stock+0, 0
	MOVWF      FARG_EEPROM_Write_data_+0
	CALL       _EEPROM_Write+0
;sys.c,349 :: 		nbcar = EEPROM_Read(0x50);
	MOVLW      80
	MOVWF      FARG_EEPROM_Read_Address+0
	CALL       _EEPROM_Read+0
	MOVF       R0+0, 0
	MOVWF      _nbcar+0
	CLRF       _nbcar+1
;sys.c,350 :: 		IntToStr(nbcar, txt);
	MOVF       _nbcar+0, 0
	MOVWF      FARG_IntToStr_input+0
	MOVF       _nbcar+1, 0
	MOVWF      FARG_IntToStr_input+1
	MOVLW      _txt+0
	MOVWF      FARG_IntToStr_output+0
	CALL       _IntToStr+0
;sys.c,352 :: 		Lcd_Out(1, 1, "nbr:");
	MOVLW      1
	MOVWF      FARG_Lcd_Out_row+0
	MOVLW      1
	MOVWF      FARG_Lcd_Out_column+0
	MOVLW      ?lstr19_sys+0
	MOVWF      FARG_Lcd_Out_text+0
	CALL       _Lcd_Out+0
;sys.c,353 :: 		Lcd_Out(2, 4, txt);
	MOVLW      2
	MOVWF      FARG_Lcd_Out_row+0
	MOVLW      4
	MOVWF      FARG_Lcd_Out_column+0
	MOVLW      _txt+0
	MOVWF      FARG_Lcd_Out_text+0
	CALL       _Lcd_Out+0
;sys.c,354 :: 		delay_ms(100);
	MOVLW      2
	MOVWF      R11+0
	MOVLW      4
	MOVWF      R12+0
	MOVLW      186
	MOVWF      R13+0
L_main45:
	DECFSZ     R13+0, 1
	GOTO       L_main45
	DECFSZ     R12+0, 1
	GOTO       L_main45
	DECFSZ     R11+0, 1
	GOTO       L_main45
	NOP
;sys.c,355 :: 		Lcd_Cmd(_LCD_CLEAR);
	MOVLW      1
	MOVWF      FARG_Lcd_Cmd_out_char+0
	CALL       _Lcd_Cmd+0
;sys.c,356 :: 		}
L_main44:
;sys.c,371 :: 		}
	GOTO       L_main12
;sys.c,372 :: 		}
L_end_main:
	GOTO       $+0
; end of _main
