
_interrupt:
	MOVWF      R15+0
	SWAPF      STATUS+0, 0
	CLRF       STATUS+0
	MOVWF      ___saveSTATUS+0
	MOVF       PCLATH+0, 0
	MOVWF      ___savePCLATH+0
	CLRF       PCLATH+0

;systéme de gestion des vehicules éléctriques.c,61 :: 		void interrupt() {
;systéme de gestion des vehicules éléctriques.c,62 :: 		Lcd_Init();
	CALL       _Lcd_Init+0
;systéme de gestion des vehicules éléctriques.c,64 :: 		if (INTCON.INTF == 1) {
	BTFSS      INTCON+0, 1
	GOTO       L_interrupt0
;systéme de gestion des vehicules éléctriques.c,65 :: 		INTCON.INTF = 0;
	BCF        INTCON+0, 1
;systéme de gestion des vehicules éléctriques.c,68 :: 		if (reserve> 3)
	MOVLW      128
	MOVWF      R0+0
	MOVLW      128
	XORWF      _reserve+1, 0
	SUBWF      R0+0, 0
	BTFSS      STATUS+0, 2
	GOTO       L__interrupt51
	MOVF       _reserve+0, 0
	SUBLW      3
L__interrupt51:
	BTFSC      STATUS+0, 0
	GOTO       L_interrupt1
;systéme de gestion des vehicules éléctriques.c,71 :: 		Lcd_Cmd(_LCD_CLEAR);
	MOVLW      1
	MOVWF      FARG_Lcd_Cmd_out_char+0
	CALL       _Lcd_Cmd+0
;systéme de gestion des vehicules éléctriques.c,72 :: 		Lcd_Out(1, 1, "NON Disponible ");
	MOVLW      1
	MOVWF      FARG_Lcd_Out_row+0
	MOVLW      1
	MOVWF      FARG_Lcd_Out_column+0
	MOVLW      ?lstr1_systéme_32de_32gestion_32des_32vehicules_32éléctriques+0
	MOVWF      FARG_Lcd_Out_text+0
	CALL       _Lcd_Out+0
;systéme de gestion des vehicules éléctriques.c,73 :: 		Delay_ms(100);
	MOVLW      2
	MOVWF      R11+0
	MOVLW      4
	MOVWF      R12+0
	MOVLW      186
	MOVWF      R13+0
L_interrupt2:
	DECFSZ     R13+0, 1
	GOTO       L_interrupt2
	DECFSZ     R12+0, 1
	GOTO       L_interrupt2
	DECFSZ     R11+0, 1
	GOTO       L_interrupt2
	NOP
;systéme de gestion des vehicules éléctriques.c,74 :: 		Lcd_Cmd(_LCD_CLEAR);
	MOVLW      1
	MOVWF      FARG_Lcd_Cmd_out_char+0
	CALL       _Lcd_Cmd+0
;systéme de gestion des vehicules éléctriques.c,76 :: 		}
	GOTO       L_interrupt3
L_interrupt1:
;systéme de gestion des vehicules éléctriques.c,77 :: 		else  if (reserve <=3)
	MOVLW      128
	MOVWF      R0+0
	MOVLW      128
	XORWF      _reserve+1, 0
	SUBWF      R0+0, 0
	BTFSS      STATUS+0, 2
	GOTO       L__interrupt52
	MOVF       _reserve+0, 0
	SUBLW      3
L__interrupt52:
	BTFSS      STATUS+0, 0
	GOTO       L_interrupt4
;systéme de gestion des vehicules éléctriques.c,79 :: 		reserve++;
	INCF       _reserve+0, 1
	BTFSC      STATUS+0, 2
	INCF       _reserve+1, 1
;systéme de gestion des vehicules éléctriques.c,81 :: 		INTCON.RBIE=1;
	BSF        INTCON+0, 3
;systéme de gestion des vehicules éléctriques.c,82 :: 		if (reserve == 1){
	MOVLW      0
	XORWF      _reserve+1, 0
	BTFSS      STATUS+0, 2
	GOTO       L__interrupt53
	MOVLW      1
	XORWF      _reserve+0, 0
L__interrupt53:
	BTFSS      STATUS+0, 2
	GOTO       L_interrupt5
;systéme de gestion des vehicules éléctriques.c,83 :: 		BORN1=1;
	MOVLW      1
	MOVWF      _BORN1+0
	MOVLW      0
	MOVWF      _BORN1+1
;systéme de gestion des vehicules éléctriques.c,84 :: 		IntToStr(BORN1, txt);
	MOVLW      1
	MOVWF      FARG_IntToStr_input+0
	MOVLW      0
	MOVWF      FARG_IntToStr_input+1
	MOVLW      _txt+0
	MOVWF      FARG_IntToStr_output+0
	CALL       _IntToStr+0
;systéme de gestion des vehicules éléctriques.c,85 :: 		Lcd_Cmd(_LCD_CLEAR);
	MOVLW      1
	MOVWF      FARG_Lcd_Cmd_out_char+0
	CALL       _Lcd_Cmd+0
;systéme de gestion des vehicules éléctriques.c,86 :: 		Lcd_Out(1, 1, "Borne");
	MOVLW      1
	MOVWF      FARG_Lcd_Out_row+0
	MOVLW      1
	MOVWF      FARG_Lcd_Out_column+0
	MOVLW      ?lstr2_systéme_32de_32gestion_32des_32vehicules_32éléctriques+0
	MOVWF      FARG_Lcd_Out_text+0
	CALL       _Lcd_Out+0
;systéme de gestion des vehicules éléctriques.c,87 :: 		Lcd_Out(2, 1, txt);
	MOVLW      2
	MOVWF      FARG_Lcd_Out_row+0
	MOVLW      1
	MOVWF      FARG_Lcd_Out_column+0
	MOVLW      _txt+0
	MOVWF      FARG_Lcd_Out_text+0
	CALL       _Lcd_Out+0
;systéme de gestion des vehicules éléctriques.c,88 :: 		Lcd_Out(2, 8, "dispo");
	MOVLW      2
	MOVWF      FARG_Lcd_Out_row+0
	MOVLW      8
	MOVWF      FARG_Lcd_Out_column+0
	MOVLW      ?lstr3_systéme_32de_32gestion_32des_32vehicules_32éléctriques+0
	MOVWF      FARG_Lcd_Out_text+0
	CALL       _Lcd_Out+0
;systéme de gestion des vehicules éléctriques.c,89 :: 		Delay_ms(100);
	MOVLW      2
	MOVWF      R11+0
	MOVLW      4
	MOVWF      R12+0
	MOVLW      186
	MOVWF      R13+0
L_interrupt6:
	DECFSZ     R13+0, 1
	GOTO       L_interrupt6
	DECFSZ     R12+0, 1
	GOTO       L_interrupt6
	DECFSZ     R11+0, 1
	GOTO       L_interrupt6
	NOP
;systéme de gestion des vehicules éléctriques.c,90 :: 		Lcd_Cmd(_LCD_CLEAR);
	MOVLW      1
	MOVWF      FARG_Lcd_Cmd_out_char+0
	CALL       _Lcd_Cmd+0
;systéme de gestion des vehicules éléctriques.c,91 :: 		}
	GOTO       L_interrupt7
L_interrupt5:
;systéme de gestion des vehicules éléctriques.c,92 :: 		else if (reserve == 2){
	MOVLW      0
	XORWF      _reserve+1, 0
	BTFSS      STATUS+0, 2
	GOTO       L__interrupt54
	MOVLW      2
	XORWF      _reserve+0, 0
L__interrupt54:
	BTFSS      STATUS+0, 2
	GOTO       L_interrupt8
;systéme de gestion des vehicules éléctriques.c,93 :: 		BORN2=2;
	MOVLW      2
	MOVWF      _BORN2+0
	MOVLW      0
	MOVWF      _BORN2+1
;systéme de gestion des vehicules éléctriques.c,94 :: 		IntToStr(BORN2, txt);
	MOVLW      2
	MOVWF      FARG_IntToStr_input+0
	MOVLW      0
	MOVWF      FARG_IntToStr_input+1
	MOVLW      _txt+0
	MOVWF      FARG_IntToStr_output+0
	CALL       _IntToStr+0
;systéme de gestion des vehicules éléctriques.c,95 :: 		Lcd_Cmd(_LCD_CLEAR);
	MOVLW      1
	MOVWF      FARG_Lcd_Cmd_out_char+0
	CALL       _Lcd_Cmd+0
;systéme de gestion des vehicules éléctriques.c,96 :: 		Lcd_Out(1, 1, "Borne");
	MOVLW      1
	MOVWF      FARG_Lcd_Out_row+0
	MOVLW      1
	MOVWF      FARG_Lcd_Out_column+0
	MOVLW      ?lstr4_systéme_32de_32gestion_32des_32vehicules_32éléctriques+0
	MOVWF      FARG_Lcd_Out_text+0
	CALL       _Lcd_Out+0
;systéme de gestion des vehicules éléctriques.c,97 :: 		Lcd_Out(2, 1, txt);
	MOVLW      2
	MOVWF      FARG_Lcd_Out_row+0
	MOVLW      1
	MOVWF      FARG_Lcd_Out_column+0
	MOVLW      _txt+0
	MOVWF      FARG_Lcd_Out_text+0
	CALL       _Lcd_Out+0
;systéme de gestion des vehicules éléctriques.c,98 :: 		Lcd_Out(2, 8, "dispo");
	MOVLW      2
	MOVWF      FARG_Lcd_Out_row+0
	MOVLW      8
	MOVWF      FARG_Lcd_Out_column+0
	MOVLW      ?lstr5_systéme_32de_32gestion_32des_32vehicules_32éléctriques+0
	MOVWF      FARG_Lcd_Out_text+0
	CALL       _Lcd_Out+0
;systéme de gestion des vehicules éléctriques.c,99 :: 		Delay_ms(100);
	MOVLW      2
	MOVWF      R11+0
	MOVLW      4
	MOVWF      R12+0
	MOVLW      186
	MOVWF      R13+0
L_interrupt9:
	DECFSZ     R13+0, 1
	GOTO       L_interrupt9
	DECFSZ     R12+0, 1
	GOTO       L_interrupt9
	DECFSZ     R11+0, 1
	GOTO       L_interrupt9
	NOP
;systéme de gestion des vehicules éléctriques.c,100 :: 		Lcd_Cmd(_LCD_CLEAR);
	MOVLW      1
	MOVWF      FARG_Lcd_Cmd_out_char+0
	CALL       _Lcd_Cmd+0
;systéme de gestion des vehicules éléctriques.c,101 :: 		}
	GOTO       L_interrupt10
L_interrupt8:
;systéme de gestion des vehicules éléctriques.c,103 :: 		else if (reserve == 3){
	MOVLW      0
	XORWF      _reserve+1, 0
	BTFSS      STATUS+0, 2
	GOTO       L__interrupt55
	MOVLW      3
	XORWF      _reserve+0, 0
L__interrupt55:
	BTFSS      STATUS+0, 2
	GOTO       L_interrupt11
;systéme de gestion des vehicules éléctriques.c,104 :: 		BORN3=3;
	MOVLW      3
	MOVWF      _BORN3+0
	MOVLW      0
	MOVWF      _BORN3+1
;systéme de gestion des vehicules éléctriques.c,105 :: 		IntToStr(BORN3, txt);
	MOVLW      3
	MOVWF      FARG_IntToStr_input+0
	MOVLW      0
	MOVWF      FARG_IntToStr_input+1
	MOVLW      _txt+0
	MOVWF      FARG_IntToStr_output+0
	CALL       _IntToStr+0
;systéme de gestion des vehicules éléctriques.c,106 :: 		Lcd_Cmd(_LCD_CLEAR);
	MOVLW      1
	MOVWF      FARG_Lcd_Cmd_out_char+0
	CALL       _Lcd_Cmd+0
;systéme de gestion des vehicules éléctriques.c,107 :: 		Lcd_Out(1, 1, "Borne");
	MOVLW      1
	MOVWF      FARG_Lcd_Out_row+0
	MOVLW      1
	MOVWF      FARG_Lcd_Out_column+0
	MOVLW      ?lstr6_systéme_32de_32gestion_32des_32vehicules_32éléctriques+0
	MOVWF      FARG_Lcd_Out_text+0
	CALL       _Lcd_Out+0
;systéme de gestion des vehicules éléctriques.c,108 :: 		Lcd_Out(2, 1, txt);
	MOVLW      2
	MOVWF      FARG_Lcd_Out_row+0
	MOVLW      1
	MOVWF      FARG_Lcd_Out_column+0
	MOVLW      _txt+0
	MOVWF      FARG_Lcd_Out_text+0
	CALL       _Lcd_Out+0
;systéme de gestion des vehicules éléctriques.c,109 :: 		Lcd_Out(2, 8, "dispo");
	MOVLW      2
	MOVWF      FARG_Lcd_Out_row+0
	MOVLW      8
	MOVWF      FARG_Lcd_Out_column+0
	MOVLW      ?lstr7_systéme_32de_32gestion_32des_32vehicules_32éléctriques+0
	MOVWF      FARG_Lcd_Out_text+0
	CALL       _Lcd_Out+0
;systéme de gestion des vehicules éléctriques.c,110 :: 		Delay_ms(100);
	MOVLW      2
	MOVWF      R11+0
	MOVLW      4
	MOVWF      R12+0
	MOVLW      186
	MOVWF      R13+0
L_interrupt12:
	DECFSZ     R13+0, 1
	GOTO       L_interrupt12
	DECFSZ     R12+0, 1
	GOTO       L_interrupt12
	DECFSZ     R11+0, 1
	GOTO       L_interrupt12
	NOP
;systéme de gestion des vehicules éléctriques.c,111 :: 		Lcd_Cmd(_LCD_CLEAR);
	MOVLW      1
	MOVWF      FARG_Lcd_Cmd_out_char+0
	CALL       _Lcd_Cmd+0
;systéme de gestion des vehicules éléctriques.c,112 :: 		}
L_interrupt11:
L_interrupt10:
L_interrupt7:
;systéme de gestion des vehicules éléctriques.c,114 :: 		}
L_interrupt4:
L_interrupt3:
;systéme de gestion des vehicules éléctriques.c,116 :: 		}
L_interrupt0:
;systéme de gestion des vehicules éléctriques.c,118 :: 		if (INTCON.RBIF)
	BTFSS      INTCON+0, 0
	GOTO       L_interrupt13
;systéme de gestion des vehicules éléctriques.c,120 :: 		INTCON.RBIF = 0;
	BCF        INTCON+0, 0
;systéme de gestion des vehicules éléctriques.c,121 :: 		if (PORTB.RB4 && test<3 && (BORN1==1 || BORN2==2 || BORN3==3)){
	BTFSS      PORTB+0, 4
	GOTO       L_interrupt18
	MOVLW      128
	XORWF      _test+1, 0
	MOVWF      R0+0
	MOVLW      128
	SUBWF      R0+0, 0
	BTFSS      STATUS+0, 2
	GOTO       L__interrupt56
	MOVLW      3
	SUBWF      _test+0, 0
L__interrupt56:
	BTFSC      STATUS+0, 0
	GOTO       L_interrupt18
	MOVLW      0
	XORWF      _BORN1+1, 0
	BTFSS      STATUS+0, 2
	GOTO       L__interrupt57
	MOVLW      1
	XORWF      _BORN1+0, 0
L__interrupt57:
	BTFSC      STATUS+0, 2
	GOTO       L__interrupt48
	MOVLW      0
	XORWF      _BORN2+1, 0
	BTFSS      STATUS+0, 2
	GOTO       L__interrupt58
	MOVLW      2
	XORWF      _BORN2+0, 0
L__interrupt58:
	BTFSC      STATUS+0, 2
	GOTO       L__interrupt48
	MOVLW      0
	XORWF      _BORN3+1, 0
	BTFSS      STATUS+0, 2
	GOTO       L__interrupt59
	MOVLW      3
	XORWF      _BORN3+0, 0
L__interrupt59:
	BTFSC      STATUS+0, 2
	GOTO       L__interrupt48
	GOTO       L_interrupt18
L__interrupt48:
L__interrupt47:
;systéme de gestion des vehicules éléctriques.c,122 :: 		test++;
	INCF       _test+0, 1
	BTFSC      STATUS+0, 2
	INCF       _test+1, 1
;systéme de gestion des vehicules éléctriques.c,123 :: 		MOTOR1=1 ;
	BSF        RA1_bit+0, BitPos(RA1_bit+0)
;systéme de gestion des vehicules éléctriques.c,124 :: 		Lcd_Cmd(_LCD_CLEAR);
	MOVLW      1
	MOVWF      FARG_Lcd_Cmd_out_char+0
	CALL       _Lcd_Cmd+0
;systéme de gestion des vehicules éléctriques.c,125 :: 		Lcd_Out(1, 1, "ENTREZ ");
	MOVLW      1
	MOVWF      FARG_Lcd_Out_row+0
	MOVLW      1
	MOVWF      FARG_Lcd_Out_column+0
	MOVLW      ?lstr8_systéme_32de_32gestion_32des_32vehicules_32éléctriques+0
	MOVWF      FARG_Lcd_Out_text+0
	CALL       _Lcd_Out+0
;systéme de gestion des vehicules éléctriques.c,127 :: 		for (ii=0;ii<3;ii++){
	CLRF       _ii+0
	CLRF       _ii+1
L_interrupt19:
	MOVLW      128
	XORWF      _ii+1, 0
	MOVWF      R0+0
	MOVLW      128
	SUBWF      R0+0, 0
	BTFSS      STATUS+0, 2
	GOTO       L__interrupt60
	MOVLW      3
	SUBWF      _ii+0, 0
L__interrupt60:
	BTFSC      STATUS+0, 0
	GOTO       L_interrupt20
;systéme de gestion des vehicules éléctriques.c,128 :: 		LED_VERTE = 1;
	BSF        RC3_bit+0, BitPos(RC3_bit+0)
;systéme de gestion des vehicules éléctriques.c,129 :: 		Delay_ms(50);
	MOVLW      130
	MOVWF      R12+0
	MOVLW      221
	MOVWF      R13+0
L_interrupt22:
	DECFSZ     R13+0, 1
	GOTO       L_interrupt22
	DECFSZ     R12+0, 1
	GOTO       L_interrupt22
	NOP
	NOP
;systéme de gestion des vehicules éléctriques.c,130 :: 		LED_VERTE = 0;
	BCF        RC3_bit+0, BitPos(RC3_bit+0)
;systéme de gestion des vehicules éléctriques.c,131 :: 		Delay_ms(50);
	MOVLW      130
	MOVWF      R12+0
	MOVLW      221
	MOVWF      R13+0
L_interrupt23:
	DECFSZ     R13+0, 1
	GOTO       L_interrupt23
	DECFSZ     R12+0, 1
	GOTO       L_interrupt23
	NOP
	NOP
;systéme de gestion des vehicules éléctriques.c,127 :: 		for (ii=0;ii<3;ii++){
	INCF       _ii+0, 1
	BTFSC      STATUS+0, 2
	INCF       _ii+1, 1
;systéme de gestion des vehicules éléctriques.c,132 :: 		}
	GOTO       L_interrupt19
L_interrupt20:
;systéme de gestion des vehicules éléctriques.c,133 :: 		MOTOR1=0;
	BCF        RA1_bit+0, BitPos(RA1_bit+0)
;systéme de gestion des vehicules éléctriques.c,136 :: 		Lcd_Cmd(_LCD_CLEAR);
	MOVLW      1
	MOVWF      FARG_Lcd_Cmd_out_char+0
	CALL       _Lcd_Cmd+0
;systéme de gestion des vehicules éléctriques.c,137 :: 		}
L_interrupt18:
;systéme de gestion des vehicules éléctriques.c,139 :: 		if (PORTB.RB5 && 0<test ){
	BTFSS      PORTB+0, 5
	GOTO       L_interrupt26
	MOVLW      128
	MOVWF      R0+0
	MOVLW      128
	XORWF      _test+1, 0
	SUBWF      R0+0, 0
	BTFSS      STATUS+0, 2
	GOTO       L__interrupt61
	MOVF       _test+0, 0
	SUBLW      0
L__interrupt61:
	BTFSC      STATUS+0, 0
	GOTO       L_interrupt26
L__interrupt46:
;systéme de gestion des vehicules éléctriques.c,140 :: 		test--;
	MOVLW      1
	SUBWF      _test+0, 1
	BTFSS      STATUS+0, 0
	DECF       _test+1, 1
;systéme de gestion des vehicules éléctriques.c,141 :: 		RESERVE--;
	MOVLW      1
	SUBWF      _reserve+0, 1
	BTFSS      STATUS+0, 0
	DECF       _reserve+1, 1
;systéme de gestion des vehicules éléctriques.c,142 :: 		if (BORN1 == 1) {
	MOVLW      0
	XORWF      _BORN1+1, 0
	BTFSS      STATUS+0, 2
	GOTO       L__interrupt62
	MOVLW      1
	XORWF      _BORN1+0, 0
L__interrupt62:
	BTFSS      STATUS+0, 2
	GOTO       L_interrupt27
;systéme de gestion des vehicules éléctriques.c,143 :: 		RESERVE--;
	MOVLW      1
	SUBWF      _reserve+0, 1
	BTFSS      STATUS+0, 0
	DECF       _reserve+1, 1
;systéme de gestion des vehicules éléctriques.c,144 :: 		IntToStr(BORN1, txt);
	MOVF       _BORN1+0, 0
	MOVWF      FARG_IntToStr_input+0
	MOVF       _BORN1+1, 0
	MOVWF      FARG_IntToStr_input+1
	MOVLW      _txt+0
	MOVWF      FARG_IntToStr_output+0
	CALL       _IntToStr+0
;systéme de gestion des vehicules éléctriques.c,145 :: 		Lcd_Cmd(_LCD_CLEAR);
	MOVLW      1
	MOVWF      FARG_Lcd_Cmd_out_char+0
	CALL       _Lcd_Cmd+0
;systéme de gestion des vehicules éléctriques.c,146 :: 		Lcd_Out(1, 1, "bye ");
	MOVLW      1
	MOVWF      FARG_Lcd_Out_row+0
	MOVLW      1
	MOVWF      FARG_Lcd_Out_column+0
	MOVLW      ?lstr9_systéme_32de_32gestion_32des_32vehicules_32éléctriques+0
	MOVWF      FARG_Lcd_Out_text+0
	CALL       _Lcd_Out+0
;systéme de gestion des vehicules éléctriques.c,147 :: 		Lcd_Out(2, 1, "Borne :");
	MOVLW      2
	MOVWF      FARG_Lcd_Out_row+0
	MOVLW      1
	MOVWF      FARG_Lcd_Out_column+0
	MOVLW      ?lstr10_systéme_32de_32gestion_32des_32vehicules_32éléctriques+0
	MOVWF      FARG_Lcd_Out_text+0
	CALL       _Lcd_Out+0
;systéme de gestion des vehicules éléctriques.c,148 :: 		Lcd_Out(2, 7, txt);
	MOVLW      2
	MOVWF      FARG_Lcd_Out_row+0
	MOVLW      7
	MOVWF      FARG_Lcd_Out_column+0
	MOVLW      _txt+0
	MOVWF      FARG_Lcd_Out_text+0
	CALL       _Lcd_Out+0
;systéme de gestion des vehicules éléctriques.c,149 :: 		MOTOR2=1;
	BSF        RA2_bit+0, BitPos(RA2_bit+0)
;systéme de gestion des vehicules éléctriques.c,150 :: 		LED_VERTE = 1;
	BSF        RC3_bit+0, BitPos(RC3_bit+0)
;systéme de gestion des vehicules éléctriques.c,151 :: 		Delay_ms(300);
	MOVLW      4
	MOVWF      R11+0
	MOVLW      12
	MOVWF      R12+0
	MOVLW      51
	MOVWF      R13+0
L_interrupt28:
	DECFSZ     R13+0, 1
	GOTO       L_interrupt28
	DECFSZ     R12+0, 1
	GOTO       L_interrupt28
	DECFSZ     R11+0, 1
	GOTO       L_interrupt28
	NOP
	NOP
;systéme de gestion des vehicules éléctriques.c,152 :: 		LED_VERTE = 0;
	BCF        RC3_bit+0, BitPos(RC3_bit+0)
;systéme de gestion des vehicules éléctriques.c,153 :: 		MOTOR2=0;
	BCF        RA2_bit+0, BitPos(RA2_bit+0)
;systéme de gestion des vehicules éléctriques.c,154 :: 		Delay_ms(50);
	MOVLW      130
	MOVWF      R12+0
	MOVLW      221
	MOVWF      R13+0
L_interrupt29:
	DECFSZ     R13+0, 1
	GOTO       L_interrupt29
	DECFSZ     R12+0, 1
	GOTO       L_interrupt29
	NOP
	NOP
;systéme de gestion des vehicules éléctriques.c,155 :: 		Lcd_Cmd(_LCD_CLEAR);
	MOVLW      1
	MOVWF      FARG_Lcd_Cmd_out_char+0
	CALL       _Lcd_Cmd+0
;systéme de gestion des vehicules éléctriques.c,156 :: 		BORN1 =0;
	CLRF       _BORN1+0
	CLRF       _BORN1+1
;systéme de gestion des vehicules éléctriques.c,157 :: 		}
	GOTO       L_interrupt30
L_interrupt27:
;systéme de gestion des vehicules éléctriques.c,159 :: 		else if (BORN2 == 2) {
	MOVLW      0
	XORWF      _BORN2+1, 0
	BTFSS      STATUS+0, 2
	GOTO       L__interrupt63
	MOVLW      2
	XORWF      _BORN2+0, 0
L__interrupt63:
	BTFSS      STATUS+0, 2
	GOTO       L_interrupt31
;systéme de gestion des vehicules éléctriques.c,161 :: 		IntToStr(BORN2, txt);
	MOVF       _BORN2+0, 0
	MOVWF      FARG_IntToStr_input+0
	MOVF       _BORN2+1, 0
	MOVWF      FARG_IntToStr_input+1
	MOVLW      _txt+0
	MOVWF      FARG_IntToStr_output+0
	CALL       _IntToStr+0
;systéme de gestion des vehicules éléctriques.c,162 :: 		Lcd_Cmd(_LCD_CLEAR);
	MOVLW      1
	MOVWF      FARG_Lcd_Cmd_out_char+0
	CALL       _Lcd_Cmd+0
;systéme de gestion des vehicules éléctriques.c,163 :: 		Lcd_Out(1, 1, "bye ");
	MOVLW      1
	MOVWF      FARG_Lcd_Out_row+0
	MOVLW      1
	MOVWF      FARG_Lcd_Out_column+0
	MOVLW      ?lstr11_systéme_32de_32gestion_32des_32vehicules_32éléctriques+0
	MOVWF      FARG_Lcd_Out_text+0
	CALL       _Lcd_Out+0
;systéme de gestion des vehicules éléctriques.c,164 :: 		Lcd_Out(2, 1, "Borne :");
	MOVLW      2
	MOVWF      FARG_Lcd_Out_row+0
	MOVLW      1
	MOVWF      FARG_Lcd_Out_column+0
	MOVLW      ?lstr12_systéme_32de_32gestion_32des_32vehicules_32éléctriques+0
	MOVWF      FARG_Lcd_Out_text+0
	CALL       _Lcd_Out+0
;systéme de gestion des vehicules éléctriques.c,165 :: 		Lcd_Out(2, 7, txt);
	MOVLW      2
	MOVWF      FARG_Lcd_Out_row+0
	MOVLW      7
	MOVWF      FARG_Lcd_Out_column+0
	MOVLW      _txt+0
	MOVWF      FARG_Lcd_Out_text+0
	CALL       _Lcd_Out+0
;systéme de gestion des vehicules éléctriques.c,166 :: 		MOTOR2=1;
	BSF        RA2_bit+0, BitPos(RA2_bit+0)
;systéme de gestion des vehicules éléctriques.c,167 :: 		LED_VERTE = 1;
	BSF        RC3_bit+0, BitPos(RC3_bit+0)
;systéme de gestion des vehicules éléctriques.c,168 :: 		Delay_ms(300);
	MOVLW      4
	MOVWF      R11+0
	MOVLW      12
	MOVWF      R12+0
	MOVLW      51
	MOVWF      R13+0
L_interrupt32:
	DECFSZ     R13+0, 1
	GOTO       L_interrupt32
	DECFSZ     R12+0, 1
	GOTO       L_interrupt32
	DECFSZ     R11+0, 1
	GOTO       L_interrupt32
	NOP
	NOP
;systéme de gestion des vehicules éléctriques.c,169 :: 		LED_VERTE = 0;
	BCF        RC3_bit+0, BitPos(RC3_bit+0)
;systéme de gestion des vehicules éléctriques.c,170 :: 		MOTOR2=0;
	BCF        RA2_bit+0, BitPos(RA2_bit+0)
;systéme de gestion des vehicules éléctriques.c,171 :: 		Delay_ms(50);
	MOVLW      130
	MOVWF      R12+0
	MOVLW      221
	MOVWF      R13+0
L_interrupt33:
	DECFSZ     R13+0, 1
	GOTO       L_interrupt33
	DECFSZ     R12+0, 1
	GOTO       L_interrupt33
	NOP
	NOP
;systéme de gestion des vehicules éléctriques.c,172 :: 		Lcd_Cmd(_LCD_CLEAR);
	MOVLW      1
	MOVWF      FARG_Lcd_Cmd_out_char+0
	CALL       _Lcd_Cmd+0
;systéme de gestion des vehicules éléctriques.c,173 :: 		BORN2 =0;
	CLRF       _BORN2+0
	CLRF       _BORN2+1
;systéme de gestion des vehicules éléctriques.c,174 :: 		}
	GOTO       L_interrupt34
L_interrupt31:
;systéme de gestion des vehicules éléctriques.c,176 :: 		else if (BORN3 == 3) {
	MOVLW      0
	XORWF      _BORN3+1, 0
	BTFSS      STATUS+0, 2
	GOTO       L__interrupt64
	MOVLW      3
	XORWF      _BORN3+0, 0
L__interrupt64:
	BTFSS      STATUS+0, 2
	GOTO       L_interrupt35
;systéme de gestion des vehicules éléctriques.c,178 :: 		IntToStr(BORN3, txt);
	MOVF       _BORN3+0, 0
	MOVWF      FARG_IntToStr_input+0
	MOVF       _BORN3+1, 0
	MOVWF      FARG_IntToStr_input+1
	MOVLW      _txt+0
	MOVWF      FARG_IntToStr_output+0
	CALL       _IntToStr+0
;systéme de gestion des vehicules éléctriques.c,179 :: 		Lcd_Cmd(_LCD_CLEAR);
	MOVLW      1
	MOVWF      FARG_Lcd_Cmd_out_char+0
	CALL       _Lcd_Cmd+0
;systéme de gestion des vehicules éléctriques.c,180 :: 		Lcd_Out(1, 1, "bye ");
	MOVLW      1
	MOVWF      FARG_Lcd_Out_row+0
	MOVLW      1
	MOVWF      FARG_Lcd_Out_column+0
	MOVLW      ?lstr13_systéme_32de_32gestion_32des_32vehicules_32éléctriques+0
	MOVWF      FARG_Lcd_Out_text+0
	CALL       _Lcd_Out+0
;systéme de gestion des vehicules éléctriques.c,181 :: 		Lcd_Out(2, 1, "Borne :");
	MOVLW      2
	MOVWF      FARG_Lcd_Out_row+0
	MOVLW      1
	MOVWF      FARG_Lcd_Out_column+0
	MOVLW      ?lstr14_systéme_32de_32gestion_32des_32vehicules_32éléctriques+0
	MOVWF      FARG_Lcd_Out_text+0
	CALL       _Lcd_Out+0
;systéme de gestion des vehicules éléctriques.c,182 :: 		Lcd_Out(2, 7, txt);
	MOVLW      2
	MOVWF      FARG_Lcd_Out_row+0
	MOVLW      7
	MOVWF      FARG_Lcd_Out_column+0
	MOVLW      _txt+0
	MOVWF      FARG_Lcd_Out_text+0
	CALL       _Lcd_Out+0
;systéme de gestion des vehicules éléctriques.c,183 :: 		MOTOR2=1;
	BSF        RA2_bit+0, BitPos(RA2_bit+0)
;systéme de gestion des vehicules éléctriques.c,184 :: 		LED_VERTE = 1;
	BSF        RC3_bit+0, BitPos(RC3_bit+0)
;systéme de gestion des vehicules éléctriques.c,185 :: 		Delay_ms(300);
	MOVLW      4
	MOVWF      R11+0
	MOVLW      12
	MOVWF      R12+0
	MOVLW      51
	MOVWF      R13+0
L_interrupt36:
	DECFSZ     R13+0, 1
	GOTO       L_interrupt36
	DECFSZ     R12+0, 1
	GOTO       L_interrupt36
	DECFSZ     R11+0, 1
	GOTO       L_interrupt36
	NOP
	NOP
;systéme de gestion des vehicules éléctriques.c,186 :: 		LED_VERTE = 0;
	BCF        RC3_bit+0, BitPos(RC3_bit+0)
;systéme de gestion des vehicules éléctriques.c,187 :: 		MOTOR2=0;
	BCF        RA2_bit+0, BitPos(RA2_bit+0)
;systéme de gestion des vehicules éléctriques.c,188 :: 		Delay_ms(50);
	MOVLW      130
	MOVWF      R12+0
	MOVLW      221
	MOVWF      R13+0
L_interrupt37:
	DECFSZ     R13+0, 1
	GOTO       L_interrupt37
	DECFSZ     R12+0, 1
	GOTO       L_interrupt37
	NOP
	NOP
;systéme de gestion des vehicules éléctriques.c,189 :: 		Lcd_Cmd(_LCD_CLEAR);
	MOVLW      1
	MOVWF      FARG_Lcd_Cmd_out_char+0
	CALL       _Lcd_Cmd+0
;systéme de gestion des vehicules éléctriques.c,190 :: 		BORN3 =0;
	CLRF       _BORN3+0
	CLRF       _BORN3+1
;systéme de gestion des vehicules éléctriques.c,191 :: 		}
L_interrupt35:
L_interrupt34:
L_interrupt30:
;systéme de gestion des vehicules éléctriques.c,192 :: 		}
L_interrupt26:
;systéme de gestion des vehicules éléctriques.c,193 :: 		}
L_interrupt13:
;systéme de gestion des vehicules éléctriques.c,195 :: 		if(intcon.t0if) {
	BTFSS      INTCON+0, 2
	GOTO       L_interrupt38
;systéme de gestion des vehicules éléctriques.c,196 :: 		if (PORTA.RA4=1) {
	BSF        PORTA+0, 4
	BTFSS      PORTA+0, 4
	GOTO       L_interrupt39
;systéme de gestion des vehicules éléctriques.c,197 :: 		wes++;
	INCF       _wes+0, 1
	BTFSC      STATUS+0, 2
	INCF       _wes+1, 1
;systéme de gestion des vehicules éléctriques.c,198 :: 		if (wes==1){
	MOVLW      0
	XORWF      _wes+1, 0
	BTFSS      STATUS+0, 2
	GOTO       L__interrupt65
	MOVLW      1
	XORWF      _wes+0, 0
L__interrupt65:
	BTFSS      STATUS+0, 2
	GOTO       L_interrupt40
;systéme de gestion des vehicules éléctriques.c,200 :: 		}
	GOTO       L_interrupt41
L_interrupt40:
;systéme de gestion des vehicules éléctriques.c,201 :: 		else if(wes==2){
	MOVLW      0
	XORWF      _wes+1, 0
	BTFSS      STATUS+0, 2
	GOTO       L__interrupt66
	MOVLW      2
	XORWF      _wes+0, 0
L__interrupt66:
	BTFSS      STATUS+0, 2
	GOTO       L_interrupt42
;systéme de gestion des vehicules éléctriques.c,202 :: 		Lcd_Cmd(_LCD_CLEAR);
	MOVLW      1
	MOVWF      FARG_Lcd_Cmd_out_char+0
	CALL       _Lcd_Cmd+0
;systéme de gestion des vehicules éléctriques.c,203 :: 		Lcd_Out(1, 1, "reservation ");
	MOVLW      1
	MOVWF      FARG_Lcd_Out_row+0
	MOVLW      1
	MOVWF      FARG_Lcd_Out_column+0
	MOVLW      ?lstr15_systéme_32de_32gestion_32des_32vehicules_32éléctriques+0
	MOVWF      FARG_Lcd_Out_text+0
	CALL       _Lcd_Out+0
;systéme de gestion des vehicules éléctriques.c,204 :: 		Lcd_Out(2, 4, "confirmee ");
	MOVLW      2
	MOVWF      FARG_Lcd_Out_row+0
	MOVLW      4
	MOVWF      FARG_Lcd_Out_column+0
	MOVLW      ?lstr16_systéme_32de_32gestion_32des_32vehicules_32éléctriques+0
	MOVWF      FARG_Lcd_Out_text+0
	CALL       _Lcd_Out+0
;systéme de gestion des vehicules éléctriques.c,205 :: 		}
L_interrupt42:
L_interrupt41:
;systéme de gestion des vehicules éléctriques.c,206 :: 		}
L_interrupt39:
;systéme de gestion des vehicules éléctriques.c,208 :: 		porta.ra0=0;
	BCF        PORTA+0, 0
;systéme de gestion des vehicules éléctriques.c,210 :: 		intcon.t0if=0;
	BCF        INTCON+0, 2
;systéme de gestion des vehicules éléctriques.c,212 :: 		}
L_interrupt38:
;systéme de gestion des vehicules éléctriques.c,213 :: 		}
L_end_interrupt:
L__interrupt50:
	MOVF       ___savePCLATH+0, 0
	MOVWF      PCLATH+0
	SWAPF      ___saveSTATUS+0, 0
	MOVWF      STATUS+0
	SWAPF      R15+0, 1
	SWAPF      R15+0, 0
	RETFIE
; end of _interrupt

_main:

;systéme de gestion des vehicules éléctriques.c,215 :: 		void main() {
;systéme de gestion des vehicules éléctriques.c,223 :: 		INTCON.GIE = 1;
	BSF        INTCON+0, 7
;systéme de gestion des vehicules éléctriques.c,224 :: 		INTCON.RBIE = 1;
	BSF        INTCON+0, 3
;systéme de gestion des vehicules éléctriques.c,225 :: 		OPTION_REG.INTEDG =1;
	BSF        OPTION_REG+0, 6
;systéme de gestion des vehicules éléctriques.c,226 :: 		INTCON.INTE = 1;
	BSF        INTCON+0, 4
;systéme de gestion des vehicules éléctriques.c,227 :: 		intcon.t0ie=1;
	BSF        INTCON+0, 5
;systéme de gestion des vehicules éléctriques.c,228 :: 		option_reg.t0cs=1;
	BSF        OPTION_REG+0, 5
;systéme de gestion des vehicules éléctriques.c,229 :: 		option_reg.t0se=1;
	BSF        OPTION_REG+0, 4
;systéme de gestion des vehicules éléctriques.c,230 :: 		TRISA.RA4=1;
	BSF        TRISA+0, 4
;systéme de gestion des vehicules éléctriques.c,235 :: 		tmr0=254;
	MOVLW      254
	MOVWF      TMR0+0
;systéme de gestion des vehicules éléctriques.c,238 :: 		LED_JAUNE_Direction = 0;
	BCF        TRISC0_bit+0, BitPos(TRISC0_bit+0)
;systéme de gestion des vehicules éléctriques.c,239 :: 		LED_BLEUE_Direction = 0;
	BCF        TRISC1_bit+0, BitPos(TRISC1_bit+0)
;systéme de gestion des vehicules éléctriques.c,240 :: 		LED_ROUGE_Direction = 0;
	BCF        TRISC2_bit+0, BitPos(TRISC2_bit+0)
;systéme de gestion des vehicules éléctriques.c,241 :: 		LED_VERTE_Direction = 0;
	BCF        TRISC3_bit+0, BitPos(TRISC3_bit+0)
;systéme de gestion des vehicules éléctriques.c,243 :: 		MOTOR1_Direction = 0;
	BCF        TRISA1_bit+0, BitPos(TRISA1_bit+0)
;systéme de gestion des vehicules éléctriques.c,244 :: 		MOTOR2_Direction = 0;
	BCF        TRISA2_bit+0, BitPos(TRISA2_bit+0)
;systéme de gestion des vehicules éléctriques.c,245 :: 		BUZZER_Direction = 0;
	BCF        TRISA0_bit+0, BitPos(TRISA0_bit+0)
;systéme de gestion des vehicules éléctriques.c,247 :: 		PORTA.RA4 = 0;
	BCF        PORTA+0, 4
;systéme de gestion des vehicules éléctriques.c,248 :: 		LED_BLEUE = 0;
	BCF        RC1_bit+0, BitPos(RC1_bit+0)
;systéme de gestion des vehicules éléctriques.c,249 :: 		LED_ROUGE = 0;
	BCF        RC2_bit+0, BitPos(RC2_bit+0)
;systéme de gestion des vehicules éléctriques.c,250 :: 		LED_VERTE = 0;
	BCF        RC3_bit+0, BitPos(RC3_bit+0)
;systéme de gestion des vehicules éléctriques.c,251 :: 		LED_JAUNE = 0;
	BCF        RC0_bit+0, BitPos(RC0_bit+0)
;systéme de gestion des vehicules éléctriques.c,252 :: 		MOTOR1 = 0;
	BCF        RA1_bit+0, BitPos(RA1_bit+0)
;systéme de gestion des vehicules éléctriques.c,253 :: 		MOTOR2 = 0;
	BCF        RA2_bit+0, BitPos(RA2_bit+0)
;systéme de gestion des vehicules éléctriques.c,254 :: 		BUZZER = 0;
	BCF        RA0_bit+0, BitPos(RA0_bit+0)
;systéme de gestion des vehicules éléctriques.c,262 :: 		if (PORTA.RA4 == 1){
	BTFSS      PORTA+0, 4
	GOTO       L_main43
;systéme de gestion des vehicules éléctriques.c,263 :: 		wes=1;
	MOVLW      1
	MOVWF      _wes+0
	MOVLW      0
	MOVWF      _wes+1
;systéme de gestion des vehicules éléctriques.c,264 :: 		Lcd_Cmd(_LCD_CLEAR);
	MOVLW      1
	MOVWF      FARG_Lcd_Cmd_out_char+0
	CALL       _Lcd_Cmd+0
;systéme de gestion des vehicules éléctriques.c,265 :: 		Lcd_Out(1, 1, "Confirmer ");
	MOVLW      1
	MOVWF      FARG_Lcd_Out_row+0
	MOVLW      1
	MOVWF      FARG_Lcd_Out_column+0
	MOVLW      ?lstr17_systéme_32de_32gestion_32des_32vehicules_32éléctriques+0
	MOVWF      FARG_Lcd_Out_text+0
	CALL       _Lcd_Out+0
;systéme de gestion des vehicules éléctriques.c,266 :: 		Lcd_Out(2, 4, "reservation ");
	MOVLW      2
	MOVWF      FARG_Lcd_Out_row+0
	MOVLW      4
	MOVWF      FARG_Lcd_Out_column+0
	MOVLW      ?lstr18_systéme_32de_32gestion_32des_32vehicules_32éléctriques+0
	MOVWF      FARG_Lcd_Out_text+0
	CALL       _Lcd_Out+0
;systéme de gestion des vehicules éléctriques.c,267 :: 		}
L_main43:
;systéme de gestion des vehicules éléctriques.c,270 :: 		while (1) {
L_main44:
;systéme de gestion des vehicules éléctriques.c,281 :: 		}
	GOTO       L_main44
;systéme de gestion des vehicules éléctriques.c,282 :: 		}
L_end_main:
	GOTO       $+0
; end of _main
