
_interrupt:
	MOVWF      R15+0
	SWAPF      STATUS+0, 0
	CLRF       STATUS+0
	MOVWF      ___saveSTATUS+0
	MOVF       PCLATH+0, 0
	MOVWF      ___savePCLATH+0
	CLRF       PCLATH+0

;séance 5.c,24 :: 		void interrupt() {
;séance 5.c,26 :: 		if (INTCON.T0IF) {
	BTFSS      INTCON+0, 2
	GOTO       L_interrupt0
;séance 5.c,27 :: 		INTCON.T0IF = 0;
	BCF        INTCON+0, 2
;séance 5.c,28 :: 		TMR0 = 254;
	MOVLW      254
	MOVWF      TMR0+0
;séance 5.c,31 :: 		if (buttonPressed == 1 && PORTA.RA4 == 1) {
	MOVF       _buttonPressed+0, 0
	XORLW      1
	BTFSS      STATUS+0, 2
	GOTO       L_interrupt3
	BTFSS      PORTA+0, 4
	GOTO       L_interrupt3
L__interrupt10:
;séance 5.c,32 :: 		Delay_ms(100);
	MOVLW      2
	MOVWF      R11+0
	MOVLW      4
	MOVWF      R12+0
	MOVLW      186
	MOVWF      R13+0
L_interrupt4:
	DECFSZ     R13+0, 1
	GOTO       L_interrupt4
	DECFSZ     R12+0, 1
	GOTO       L_interrupt4
	DECFSZ     R11+0, 1
	GOTO       L_interrupt4
	NOP
;séance 5.c,35 :: 		Lcd_Cmd(_LCD_CLEAR);
	MOVLW      1
	MOVWF      FARG_Lcd_Cmd_out_char+0
	CALL       _Lcd_Cmd+0
;séance 5.c,36 :: 		Lcd_Out(1, 1, "Reservation");
	MOVLW      1
	MOVWF      FARG_Lcd_Out_row+0
	MOVLW      1
	MOVWF      FARG_Lcd_Out_column+0
	MOVLW      ?lstr1_séance_325+0
	MOVWF      FARG_Lcd_Out_text+0
	CALL       _Lcd_Out+0
;séance 5.c,37 :: 		Lcd_Out(2, 1, "Confirmee");
	MOVLW      2
	MOVWF      FARG_Lcd_Out_row+0
	MOVLW      1
	MOVWF      FARG_Lcd_Out_column+0
	MOVLW      ?lstr2_séance_325+0
	MOVWF      FARG_Lcd_Out_text+0
	CALL       _Lcd_Out+0
;séance 5.c,39 :: 		buttonPressed = 0;
	CLRF       _buttonPressed+0
;séance 5.c,41 :: 		}
L_interrupt3:
;séance 5.c,42 :: 		}
L_interrupt0:
;séance 5.c,43 :: 		}
L_end_interrupt:
L__interrupt13:
	MOVF       ___savePCLATH+0, 0
	MOVWF      PCLATH+0
	SWAPF      ___saveSTATUS+0, 0
	MOVWF      STATUS+0
	SWAPF      R15+0, 1
	SWAPF      R15+0, 0
	RETFIE
; end of _interrupt

_main:

;séance 5.c,45 :: 		void main() {
;séance 5.c,47 :: 		Lcd_Init();
	CALL       _Lcd_Init+0
;séance 5.c,48 :: 		Lcd_Cmd(_LCD_CLEAR);
	MOVLW      1
	MOVWF      FARG_Lcd_Cmd_out_char+0
	CALL       _Lcd_Cmd+0
;séance 5.c,51 :: 		TRISA = 0x10;
	MOVLW      16
	MOVWF      TRISA+0
;séance 5.c,52 :: 		PORTA = 0x00;
	CLRF       PORTA+0
;séance 5.c,55 :: 		INTCON = 0xA0;
	MOVLW      160
	MOVWF      INTCON+0
;séance 5.c,56 :: 		OPTION_REG.T0CS = 1;
	BSF        OPTION_REG+0, 5
;séance 5.c,57 :: 		OPTION_REG.T0SE = 1;
	BSF        OPTION_REG+0, 4
;séance 5.c,58 :: 		TMR0 = 254;
	MOVLW      254
	MOVWF      TMR0+0
;séance 5.c,61 :: 		if (buttonPressed == 0 && PORTA.RA4 == 1) {
	MOVF       _buttonPressed+0, 0
	XORLW      0
	BTFSS      STATUS+0, 2
	GOTO       L_main7
	BTFSS      PORTA+0, 4
	GOTO       L_main7
L__main11:
;séance 5.c,64 :: 		Lcd_Cmd(_LCD_CLEAR);
	MOVLW      1
	MOVWF      FARG_Lcd_Cmd_out_char+0
	CALL       _Lcd_Cmd+0
;séance 5.c,65 :: 		Lcd_Out(1, 1, "Confirmer ");
	MOVLW      1
	MOVWF      FARG_Lcd_Out_row+0
	MOVLW      1
	MOVWF      FARG_Lcd_Out_column+0
	MOVLW      ?lstr3_séance_325+0
	MOVWF      FARG_Lcd_Out_text+0
	CALL       _Lcd_Out+0
;séance 5.c,66 :: 		Lcd_Out(2, 1, "reservation ");
	MOVLW      2
	MOVWF      FARG_Lcd_Out_row+0
	MOVLW      1
	MOVWF      FARG_Lcd_Out_column+0
	MOVLW      ?lstr4_séance_325+0
	MOVWF      FARG_Lcd_Out_text+0
	CALL       _Lcd_Out+0
;séance 5.c,68 :: 		buttonPressed = 1;
	MOVLW      1
	MOVWF      _buttonPressed+0
;séance 5.c,70 :: 		}
L_main7:
;séance 5.c,72 :: 		while (1) {
L_main8:
;séance 5.c,75 :: 		}
	GOTO       L_main8
;séance 5.c,76 :: 		}
L_end_main:
	GOTO       $+0
; end of _main
